target datalayout = "e-m:e-p270:32:32-p271:32:32-p272:64:64-i64:64-i128:128-f80:128-n8:16:32:64-S128"
target triple = "x86_64-pc-linux-gnu"

%struct.pmix_list_t = type { %struct.pmix_object_t, %struct.pmix_list_item_t, i64 }
%struct.pmix_object_t = type { %union.pthread_mutex_t, ptr, i32, %struct.pmix_tma }
%union.pthread_mutex_t = type { %struct.__pthread_mutex_s }
%struct.__pthread_mutex_s = type { i32, i32, i32, i32, i32, i16, i16, %struct.__pthread_internal_list }
%struct.__pthread_internal_list = type { ptr, ptr }
%struct.pmix_tma = type { ptr, ptr, ptr, ptr, ptr, ptr, ptr, ptr }
%struct.pmix_list_item_t = type { %struct.pmix_object_t, ptr, ptr, i32 }
%struct.pmix_output_desc_t = type { i8, i8, i32, i8, i32, ptr, ptr, i32, ptr, i32, i8, i8, i8, i8, ptr, i32, i32 }
%struct.pmix_proc = type { [256 x i8], i32 }
%struct.prte_process_info_t = type { %struct.pmix_proc, %struct.pmix_proc, ptr, %struct.pmix_proc, i32, i32, i32, ptr, ptr, i32, i8, ptr, i16, ptr, ptr, i8, ptr, i8 }
%struct.pmix_mca_base_framework_t = type { ptr, ptr, ptr, ptr, ptr, ptr, i32, i32, ptr, ptr, i32, i32, %struct.pmix_list_t, %struct.pmix_list_t }
%struct.event = type { %struct.event_callback, %union.anon.0, i32, ptr, %union.anon.2, i16, i16, %struct.timeval }
%struct.event_callback = type { %struct.anon, i16, i8, i8, %union.anon, ptr }
%struct.anon = type { ptr, ptr }
%union.anon = type { ptr }
%union.anon.0 = type { %struct.anon.1 }
%struct.anon.1 = type { ptr, ptr }
%union.anon.2 = type { %struct.anon.3 }
%struct.anon.3 = type { %struct.anon.4, %struct.timeval }
%struct.anon.4 = type { ptr, ptr }
%struct.timeval = type { i64, i64 }
%struct.prte_filem_raw_incoming_t = type { %struct.pmix_list_item_t, i32, %struct.event, i8, i32, ptr, ptr, ptr, i32, ptr, %struct.pmix_list_t }

@pmix_output_info = external global [0 x %struct.pmix_output_desc_t], align 8
@.str.5 = private unnamed_addr constant [19 x i8] c"filem_raw_module.c\00", align 1
@prte_process_info = external global %struct.prte_process_info_t, align 8
@prte_filem_base_framework = external global %struct.pmix_mca_base_framework_t, align 8
@.str.12 = private unnamed_addr constant [37 x i8] c"PRTE ERROR: %s in file %s at line %d\00", align 1
@.str.22 = private unnamed_addr constant [47 x i8] c"%s filem:raw: identifying links for archive %s\00", align 1
@.str.23 = private unnamed_addr constant [10 x i8] c"tar tf %s\00", align 1
@.str.24 = private unnamed_addr constant [2 x i8] c"r\00", align 1
@.str.25 = private unnamed_addr constant [22 x i8] c"%s filem:raw: path %s\00", align 1
@.str.26 = private unnamed_addr constant [51 x i8] c"%s filem:raw: path %s is a directory - ignoring it\00", align 1
@.str.27 = private unnamed_addr constant [6 x i8] c".deps\00", align 1
@.str.28 = private unnamed_addr constant [51 x i8] c"%s filem:raw: path %s includes .deps - ignoring it\00", align 1
@.str.29 = private unnamed_addr constant [44 x i8] c"%s filem:raw: adding path %s to link points\00", align 1

; Function Attrs: nounwind uwtable
define internal i32 @link_archive(ptr noundef %0) #0 {
  %2 = alloca i32, align 4
  %3 = alloca ptr, align 8
  %4 = alloca ptr, align 8
  %5 = alloca ptr, align 8
  %6 = alloca [4096 x i8], align 16
  %7 = alloca i32, align 4
  store ptr %0, ptr %3, align 8, !tbaa !38
  call void @llvm.lifetime.start.p0(i64 8, ptr %4) #13
  call void @llvm.lifetime.start.p0(i64 8, ptr %5) #13
  call void @llvm.lifetime.start.p0(i64 4096, ptr %6) #13
  %8 = load i32, ptr getelementptr inbounds nuw (%struct.pmix_mca_base_framework_t, ptr @prte_filem_base_framework, i32 0, i32 11), align 4, !tbaa !40
  %9 = icmp sge i32 %8, 0
  br i1 %9, label %10, label %26

10:                                               ; preds = %1
  %11 = load i32, ptr getelementptr inbounds nuw (%struct.pmix_mca_base_framework_t, ptr @prte_filem_base_framework, i32 0, i32 11), align 4, !tbaa !40
  %12 = icmp slt i32 %11, 64
  br i1 %12, label %13, label %26

13:                                               ; preds = %10
  %14 = load i32, ptr getelementptr inbounds nuw (%struct.pmix_mca_base_framework_t, ptr @prte_filem_base_framework, i32 0, i32 11), align 4, !tbaa !40
  %15 = sext i32 %14 to i64
  %16 = getelementptr inbounds [0 x %struct.pmix_output_desc_t], ptr @pmix_output_info, i64 0, i64 %15
  %17 = getelementptr inbounds nuw %struct.pmix_output_desc_t, ptr %16, i32 0, i32 2
  %18 = load i32, ptr %17, align 4, !tbaa !23
  %19 = icmp sge i32 %18, 1
  br i1 %19, label %20, label %26

20:                                               ; preds = %13
  %21 = load i32, ptr getelementptr inbounds nuw (%struct.pmix_mca_base_framework_t, ptr @prte_filem_base_framework, i32 0, i32 11), align 4, !tbaa !40
  %22 = call ptr @prte_util_print_name_args(ptr noundef @prte_process_info)
  %23 = load ptr, ptr %3, align 8, !tbaa !38
  %24 = getelementptr inbounds nuw %struct.prte_filem_raw_incoming_t, ptr %23, i32 0, i32 7
  %25 = load ptr, ptr %24, align 8, !tbaa !125
  call void (i32, ptr, ...) @pmix_output(i32 noundef %21, ptr noundef @.str.22, ptr noundef %22, ptr noundef %25)
  br label %26

26:                                               ; preds = %20, %13, %10, %1
  %27 = load ptr, ptr %3, align 8, !tbaa !38
  %28 = getelementptr inbounds nuw %struct.prte_filem_raw_incoming_t, ptr %27, i32 0, i32 7
  %29 = load ptr, ptr %28, align 8, !tbaa !125
  %30 = call i32 (ptr, ptr, ...) @pmix_asprintf(ptr noundef %5, ptr noundef @.str.23, ptr noundef %29)
  %31 = load ptr, ptr %5, align 8, !tbaa !61
  %32 = call noalias ptr @popen(ptr noundef %31, ptr noundef @.str.24)
  store ptr %32, ptr %4, align 8, !tbaa !166
  %33 = load ptr, ptr %5, align 8, !tbaa !61
  call void @free(ptr noundef %33) #13
  %34 = load ptr, ptr %4, align 8, !tbaa !166
  %35 = icmp eq ptr null, %34
  br i1 %35, label %36, label %41

36:                                               ; preds = %26
  br label %37

37:                                               ; preds = %36
  %38 = call ptr @prte_strerror(i32 noundef -21)
  call void (i32, ptr, ...) @pmix_output(i32 noundef 0, ptr noundef @.str.12, ptr noundef %38, ptr noundef @.str.5, i32 noundef 860)
  br label %39

39:                                               ; preds = %37
  br label %40

40:                                               ; preds = %39
  store i32 -21, ptr %2, align 4
  store i32 1, ptr %7, align 4
  br label %146

41:                                               ; preds = %26
  br label %42

42:                                               ; preds = %138, %120, %98, %68, %41
  %43 = getelementptr inbounds [4096 x i8], ptr %6, i64 0, i64 0
  %44 = load ptr, ptr %4, align 8, !tbaa !166
  %45 = call ptr @fgets(ptr noundef %43, i32 noundef 4096, ptr noundef %44)
  %46 = icmp ne ptr %45, null
  br i1 %46, label %47, label %143

47:                                               ; preds = %42
  %48 = load i32, ptr getelementptr inbounds nuw (%struct.pmix_mca_base_framework_t, ptr @prte_filem_base_framework, i32 0, i32 11), align 4, !tbaa !40
  %49 = icmp sge i32 %48, 0
  br i1 %49, label %50, label %64

50:                                               ; preds = %47
  %51 = load i32, ptr getelementptr inbounds nuw (%struct.pmix_mca_base_framework_t, ptr @prte_filem_base_framework, i32 0, i32 11), align 4, !tbaa !40
  %52 = icmp slt i32 %51, 64
  br i1 %52, label %53, label %64

53:                                               ; preds = %50
  %54 = load i32, ptr getelementptr inbounds nuw (%struct.pmix_mca_base_framework_t, ptr @prte_filem_base_framework, i32 0, i32 11), align 4, !tbaa !40
  %55 = sext i32 %54 to i64
  %56 = getelementptr inbounds [0 x %struct.pmix_output_desc_t], ptr @pmix_output_info, i64 0, i64 %55
  %57 = getelementptr inbounds nuw %struct.pmix_output_desc_t, ptr %56, i32 0, i32 2
  %58 = load i32, ptr %57, align 4, !tbaa !23
  %59 = icmp sge i32 %58, 10
  br i1 %59, label %60, label %64

60:                                               ; preds = %53
  %61 = load i32, ptr getelementptr inbounds nuw (%struct.pmix_mca_base_framework_t, ptr @prte_filem_base_framework, i32 0, i32 11), align 4, !tbaa !40
  %62 = call ptr @prte_util_print_name_args(ptr noundef @prte_process_info)
  %63 = getelementptr inbounds [4096 x i8], ptr %6, i64 0, i64 0
  call void (i32, ptr, ...) @pmix_output(i32 noundef %61, ptr noundef @.str.25, ptr noundef %62, ptr noundef %63)
  br label %64

64:                                               ; preds = %60, %53, %50, %47
  %65 = getelementptr inbounds [4096 x i8], ptr %6, i64 0, i64 0
  %66 = call i64 @strlen(ptr noundef %65) #14
  %67 = icmp eq i64 0, %66
  br i1 %67, label %68, label %69

68:                                               ; preds = %64
  br label %42, !llvm.loop !168

69:                                               ; preds = %64
  %70 = getelementptr inbounds [4096 x i8], ptr %6, i64 0, i64 0
  %71 = call i64 @strlen(ptr noundef %70) #14
  %72 = sub i64 %71, 1
  %73 = getelementptr inbounds nuw [4096 x i8], ptr %6, i64 0, i64 %72
  store i8 0, ptr %73, align 1, !tbaa !67
  %74 = getelementptr inbounds [4096 x i8], ptr %6, i64 0, i64 0
  %75 = call i64 @strlen(ptr noundef %74) #14
  %76 = sub i64 %75, 1
  %77 = getelementptr inbounds nuw [4096 x i8], ptr %6, i64 0, i64 %76
  %78 = load i8, ptr %77, align 1, !tbaa !67
  %79 = sext i8 %78 to i32
  %80 = icmp eq i32 47, %79
  br i1 %80, label %81, label %99

81:                                               ; preds = %69
  %82 = load i32, ptr getelementptr inbounds nuw (%struct.pmix_mca_base_framework_t, ptr @prte_filem_base_framework, i32 0, i32 11), align 4, !tbaa !40
  %83 = icmp sge i32 %82, 0
  br i1 %83, label %84, label %98

84:                                               ; preds = %81
  %85 = load i32, ptr getelementptr inbounds nuw (%struct.pmix_mca_base_framework_t, ptr @prte_filem_base_framework, i32 0, i32 11), align 4, !tbaa !40
  %86 = icmp slt i32 %85, 64
  br i1 %86, label %87, label %98

87:                                               ; preds = %84
  %88 = load i32, ptr getelementptr inbounds nuw (%struct.pmix_mca_base_framework_t, ptr @prte_filem_base_framework, i32 0, i32 11), align 4, !tbaa !40
  %89 = sext i32 %88 to i64
  %90 = getelementptr inbounds [0 x %struct.pmix_output_desc_t], ptr @pmix_output_info, i64 0, i64 %89
  %91 = getelementptr inbounds nuw %struct.pmix_output_desc_t, ptr %90, i32 0, i32 2
  %92 = load i32, ptr %91, align 4, !tbaa !23
  %93 = icmp sge i32 %92, 10
  br i1 %93, label %94, label %98

94:                                               ; preds = %87
  %95 = load i32, ptr getelementptr inbounds nuw (%struct.pmix_mca_base_framework_t, ptr @prte_filem_base_framework, i32 0, i32 11), align 4, !tbaa !40
  %96 = call ptr @prte_util_print_name_args(ptr noundef @prte_process_info)
  %97 = getelementptr inbounds [4096 x i8], ptr %6, i64 0, i64 0
  call void (i32, ptr, ...) @pmix_output(i32 noundef %95, ptr noundef @.str.26, ptr noundef %96, ptr noundef %97)
  br label %98

98:                                               ; preds = %94, %87, %84, %81
  br label %42, !llvm.loop !168

99:                                               ; preds = %69
  %100 = getelementptr inbounds [4096 x i8], ptr %6, i64 0, i64 0
  %101 = call ptr @strstr(ptr noundef %100, ptr noundef @.str.27) #14
  %102 = icmp ne ptr null, %101
  br i1 %102, label %103, label %121

103:                                              ; preds = %99
  %104 = load i32, ptr getelementptr inbounds nuw (%struct.pmix_mca_base_framework_t, ptr @prte_filem_base_framework, i32 0, i32 11), align 4, !tbaa !40
  %105 = icmp sge i32 %104, 0
  br i1 %105, label %106, label %120

106:                                              ; preds = %103
  %107 = load i32, ptr getelementptr inbounds nuw (%struct.pmix_mca_base_framework_t, ptr @prte_filem_base_framework, i32 0, i32 11), align 4, !tbaa !40
  %108 = icmp slt i32 %107, 64
  br i1 %108, label %109, label %120

109:                                              ; preds = %106
  %110 = load i32, ptr getelementptr inbounds nuw (%struct.pmix_mca_base_framework_t, ptr @prte_filem_base_framework, i32 0, i32 11), align 4, !tbaa !40
  %111 = sext i32 %110 to i64
  %112 = getelementptr inbounds [0 x %struct.pmix_output_desc_t], ptr @pmix_output_info, i64 0, i64 %111
  %113 = getelementptr inbounds nuw %struct.pmix_output_desc_t, ptr %112, i32 0, i32 2
  %114 = load i32, ptr %113, align 4, !tbaa !23
  %115 = icmp sge i32 %114, 10
  br i1 %115, label %116, label %120

116:                                              ; preds = %109
  %117 = load i32, ptr getelementptr inbounds nuw (%struct.pmix_mca_base_framework_t, ptr @prte_filem_base_framework, i32 0, i32 11), align 4, !tbaa !40
  %118 = call ptr @prte_util_print_name_args(ptr noundef @prte_process_info)
  %119 = getelementptr inbounds [4096 x i8], ptr %6, i64 0, i64 0
  call void (i32, ptr, ...) @pmix_output(i32 noundef %117, ptr noundef @.str.28, ptr noundef %118, ptr noundef %119)
  br label %120

120:                                              ; preds = %116, %109, %106, %103
  br label %42, !llvm.loop !168

121:                                              ; preds = %99
  %122 = load i32, ptr getelementptr inbounds nuw (%struct.pmix_mca_base_framework_t, ptr @prte_filem_base_framework, i32 0, i32 11), align 4, !tbaa !40
  %123 = icmp sge i32 %122, 0
  br i1 %123, label %124, label %138

124:                                              ; preds = %121
  %125 = load i32, ptr getelementptr inbounds nuw (%struct.pmix_mca_base_framework_t, ptr @prte_filem_base_framework, i32 0, i32 11), align 4, !tbaa !40
  %126 = icmp slt i32 %125, 64
  br i1 %126, label %127, label %138

127:                                              ; preds = %124
  %128 = load i32, ptr getelementptr inbounds nuw (%struct.pmix_mca_base_framework_t, ptr @prte_filem_base_framework, i32 0, i32 11), align 4, !tbaa !40
  %129 = sext i32 %128 to i64
  %130 = getelementptr inbounds [0 x %struct.pmix_output_desc_t], ptr @pmix_output_info, i64 0, i64 %129
  %131 = getelementptr inbounds nuw %struct.pmix_output_desc_t, ptr %130, i32 0, i32 2
  %132 = load i32, ptr %131, align 4, !tbaa !23
  %133 = icmp sge i32 %132, 10
  br i1 %133, label %134, label %138

134:                                              ; preds = %127
  %135 = load i32, ptr getelementptr inbounds nuw (%struct.pmix_mca_base_framework_t, ptr @prte_filem_base_framework, i32 0, i32 11), align 4, !tbaa !40
  %136 = call ptr @prte_util_print_name_args(ptr noundef @prte_process_info)
  %137 = getelementptr inbounds [4096 x i8], ptr %6, i64 0, i64 0
  call void (i32, ptr, ...) @pmix_output(i32 noundef %135, ptr noundef @.str.29, ptr noundef %136, ptr noundef %137)
  br label %138

138:                                              ; preds = %134, %127, %124, %121
  %139 = load ptr, ptr %3, align 8, !tbaa !38
  %140 = getelementptr inbounds nuw %struct.prte_filem_raw_incoming_t, ptr %139, i32 0, i32 9
  %141 = getelementptr inbounds [4096 x i8], ptr %6, i64 0, i64 0
  %142 = call i32 @PMIx_Argv_append_nosize(ptr noundef %140, ptr noundef %141)
  br label %42, !llvm.loop !168

143:                                              ; preds = %42
  %144 = load ptr, ptr %4, align 8, !tbaa !166
  %145 = call i32 @pclose(ptr noundef %144)
  store i32 0, ptr %2, align 4
  store i32 1, ptr %7, align 4
  br label %146

146:                                              ; preds = %143, %40
  call void @llvm.lifetime.end.p0(i64 4096, ptr %6) #13
  call void @llvm.lifetime.end.p0(i64 8, ptr %5) #13
  call void @llvm.lifetime.end.p0(i64 8, ptr %4) #13
  %147 = load i32, ptr %2, align 4
  ret i32 %147
}