; Function Attrs: nounwind uwtable
define internal fastcc range(i32 -21, 1) i32 @link_archive(ptr noundef %0) unnamed_addr #0 {
  %2 = alloca ptr, align 8
  %3 = alloca [4096 x i8], align 16
  call void @llvm.lifetime.start.p0(i64 8, ptr nonnull %2) #16
  call void @llvm.lifetime.start.p0(i64 4096, ptr nonnull %3) #16
  %4 = load i32, ptr getelementptr inbounds nuw (i8, ptr @prte_filem_base_framework, i64 76), align 4, !tbaa !44
  %or.cond = icmp ult i32 %4, 64
  br i1 %or.cond, label %5, label %14

5:                                                ; preds = %1
  %6 = zext nneg i32 %4 to i64
  %7 = getelementptr inbounds nuw [0 x %struct.pmix_output_desc_t], ptr @pmix_output_info, i64 0, i64 %6, i32 2
  %8 = load i32, ptr %7, align 4, !tbaa !27
  %9 = icmp sgt i32 %8, 0
  br i1 %9, label %10, label %14

10:                                               ; preds = %5
  %11 = tail call ptr @prte_util_print_name_args(ptr noundef nonnull @prte_process_info) #16
  %12 = getelementptr inbounds nuw i8, ptr %0, i64 304
  %13 = load ptr, ptr %12, align 8, !tbaa !127
  tail call void (i32, ptr, ...) @pmix_output(i32 noundef %4, ptr noundef nonnull @.str.22, ptr noundef %11, ptr noundef %13) #16
  br label %14

14:                                               ; preds = %10, %5, %1
  %15 = getelementptr inbounds nuw i8, ptr %0, i64 304
  %16 = load ptr, ptr %15, align 8, !tbaa !127
  %17 = call i32 (ptr, ptr, ...) @pmix_asprintf(ptr noundef nonnull %2, ptr noundef nonnull @.str.23, ptr noundef %16) #16
  %18 = load ptr, ptr %2, align 8, !tbaa !66
  %19 = call noalias ptr @popen(ptr noundef %18, ptr noundef nonnull @.str.24)
  %20 = load ptr, ptr %2, align 8, !tbaa !66
  call void @free(ptr noundef %20) #16
  %21 = icmp eq ptr %19, null
  br i1 %21, label %24, label %.preheader

.preheader:                                       ; preds = %14
  %22 = call ptr @fgets(ptr noundef nonnull %3, i32 noundef 4096, ptr noundef nonnull %19)
  %.not22 = icmp eq ptr %22, null
  br i1 %.not22, label %._crit_edge, label %.lr.ph

.lr.ph:                                           ; preds = %.preheader
  %23 = getelementptr inbounds nuw i8, ptr %0, i64 320
  br label %26

24:                                               ; preds = %14
  %25 = call ptr @prte_strerror(i32 noundef -21) #16
  call void (i32, ptr, ...) @pmix_output(i32 noundef 0, ptr noundef nonnull @.str.12, ptr noundef %25, ptr noundef nonnull @.str.5, i32 noundef 860) #16
  br label %78

26:                                               ; preds = %.lr.ph, %.backedge
  %27 = load i32, ptr getelementptr inbounds nuw (i8, ptr @prte_filem_base_framework, i64 76), align 4, !tbaa !44
  %or.cond3 = icmp ult i32 %27, 64
  br i1 %or.cond3, label %28, label %35

28:                                               ; preds = %26
  %29 = zext nneg i32 %27 to i64
  %30 = getelementptr inbounds nuw [0 x %struct.pmix_output_desc_t], ptr @pmix_output_info, i64 0, i64 %29, i32 2
  %31 = load i32, ptr %30, align 4, !tbaa !27
  %32 = icmp sgt i32 %31, 9
  br i1 %32, label %33, label %35

33:                                               ; preds = %28
  %34 = call ptr @prte_util_print_name_args(ptr noundef nonnull @prte_process_info) #16
  call void (i32, ptr, ...) @pmix_output(i32 noundef %27, ptr noundef nonnull @.str.25, ptr noundef %34, ptr noundef nonnull %3) #16
  br label %35

35:                                               ; preds = %33, %28, %26
  %36 = call i64 @strlen(ptr noundef nonnull dereferenceable(1) %3) #21
  %37 = icmp eq i64 %36, 0
  br i1 %37, label %.backedge, label %38

38:                                               ; preds = %35
  %39 = add i64 %36, -1
  %40 = getelementptr inbounds nuw [4096 x i8], ptr %3, i64 0, i64 %39
  store i8 0, ptr %40, align 1, !tbaa !71
  %41 = call i64 @strlen(ptr noundef nonnull dereferenceable(1) %3) #21
  %42 = add i64 %41, -1
  %43 = getelementptr inbounds nuw [4096 x i8], ptr %3, i64 0, i64 %42
  %44 = load i8, ptr %43, align 1, !tbaa !71
  %45 = icmp eq i8 %44, 47
  br i1 %45, label %46, label %56

46:                                               ; preds = %38
  %47 = load i32, ptr getelementptr inbounds nuw (i8, ptr @prte_filem_base_framework, i64 76), align 4, !tbaa !44
  %or.cond5 = icmp ult i32 %47, 64
  br i1 %or.cond5, label %48, label %.backedge

48:                                               ; preds = %46
  %49 = zext nneg i32 %47 to i64
  %50 = getelementptr inbounds nuw [0 x %struct.pmix_output_desc_t], ptr @pmix_output_info, i64 0, i64 %49, i32 2
  %51 = load i32, ptr %50, align 4, !tbaa !27
  %52 = icmp sgt i32 %51, 9
  br i1 %52, label %53, label %.backedge

53:                                               ; preds = %48
  %54 = call ptr @prte_util_print_name_args(ptr noundef nonnull @prte_process_info) #16
  call void (i32, ptr, ...) @pmix_output(i32 noundef %47, ptr noundef nonnull @.str.26, ptr noundef %54, ptr noundef nonnull %3) #16
  br label %.backedge

.backedge:                                        ; preds = %59, %60, %65, %46, %48, %53, %75, %35
  %55 = call ptr @fgets(ptr noundef nonnull %3, i32 noundef 4096, ptr noundef nonnull %19)
  %.not = icmp eq ptr %55, null
  br i1 %.not, label %._crit_edge, label %26, !llvm.loop !139

56:                                               ; preds = %38
  %57 = call ptr @strstr(ptr noundef nonnull dereferenceable(1) %3, ptr noundef nonnull dereferenceable(1) @.str.27) #21
  %.not21 = icmp eq ptr %57, null
  %58 = load i32, ptr getelementptr inbounds nuw (i8, ptr @prte_filem_base_framework, i64 76), align 4, !tbaa !44
  %or.cond9 = icmp ult i32 %58, 64
  br i1 %.not21, label %67, label %59

59:                                               ; preds = %56
  br i1 %or.cond9, label %60, label %.backedge

60:                                               ; preds = %59
  %61 = zext nneg i32 %58 to i64
  %62 = getelementptr inbounds nuw [0 x %struct.pmix_output_desc_t], ptr @pmix_output_info, i64 0, i64 %61, i32 2
  %63 = load i32, ptr %62, align 4, !tbaa !27
  %64 = icmp sgt i32 %63, 9
  br i1 %64, label %65, label %.backedge

65:                                               ; preds = %60
  %66 = call ptr @prte_util_print_name_args(ptr noundef nonnull @prte_process_info) #16
  call void (i32, ptr, ...) @pmix_output(i32 noundef %58, ptr noundef nonnull @.str.28, ptr noundef %66, ptr noundef nonnull %3) #16
  br label %.backedge

67:                                               ; preds = %56
  br i1 %or.cond9, label %68, label %75

68:                                               ; preds = %67
  %69 = zext nneg i32 %58 to i64
  %70 = getelementptr inbounds nuw [0 x %struct.pmix_output_desc_t], ptr @pmix_output_info, i64 0, i64 %69, i32 2
  %71 = load i32, ptr %70, align 4, !tbaa !27
  %72 = icmp sgt i32 %71, 9
  br i1 %72, label %73, label %75

73:                                               ; preds = %68
  %74 = call ptr @prte_util_print_name_args(ptr noundef nonnull @prte_process_info) #16
  call void (i32, ptr, ...) @pmix_output(i32 noundef %58, ptr noundef nonnull @.str.29, ptr noundef %74, ptr noundef nonnull %3) #16
  br label %75

75:                                               ; preds = %73, %68, %67
  %76 = call i32 @PMIx_Argv_append_nosize(ptr noundef nonnull %23, ptr noundef nonnull %3) #16
  br label %.backedge

._crit_edge:                                      ; preds = %.backedge, %.preheader
  %77 = call i32 @pclose(ptr noundef nonnull %19)
  br label %78

78:                                               ; preds = %._crit_edge, %24
  %.0 = phi i32 [ -21, %24 ], [ 0, %._crit_edge ]
  call void @llvm.lifetime.end.p0(i64 4096, ptr nonnull %3) #16
  call void @llvm.lifetime.end.p0(i64 8, ptr nonnull %2) #16
  ret i32 %.0
}